target datalayout = "e-m:e-p270:32:32-p271:32:32-p272:64:64-i64:64-i128:128-f80:128-n8:16:32:64-S128"
target triple = "x86_64-pc-linux-gnu"

@.str.40 = private unnamed_addr constant [72 x i8] c"You probably don't have a working Vulkan driver installed. %s %s %s(%d)\00", align 1
@.str.41 = private unnamed_addr constant [34 x i8] c"Getting Vulkan extensions failed:\00", align 1
@.str.42 = private unnamed_addr constant [48 x i8] c"vkEnumerateInstanceExtensionProperties returned\00", align 1
@.str.43 = private unnamed_addr constant [89 x i8] c"Getting Vulkan extensions failed: vkEnumerateInstanceExtensionProperties returned %s(%d)\00", align 1

; Function Attrs: nounwind uwtable
define hidden ptr @SDL_Vulkan_CreateInstanceExtensionsList(ptr noundef %0, ptr noundef %1) #0 {
  %3 = alloca ptr, align 8
  %4 = alloca ptr, align 8
  %5 = alloca ptr, align 8
  %6 = alloca i32, align 4
  %7 = alloca i32, align 4
  %8 = alloca ptr, align 8
  %9 = alloca i32, align 4
  store ptr %0, ptr %4, align 8
  store ptr %1, ptr %5, align 8
  call void @llvm.lifetime.start.p0(i64 4, ptr %6) #6
  store i32 0, ptr %6, align 4
  call void @llvm.lifetime.start.p0(i64 4, ptr %7) #6
  %10 = load ptr, ptr %4, align 8
  %11 = call i32 %10(ptr noundef null, ptr noundef %6, ptr noundef null)
  store i32 %11, ptr %7, align 4
  call void @llvm.lifetime.start.p0(i64 8, ptr %8) #6
  %12 = load i32, ptr %7, align 4
  %13 = icmp eq i32 %12, -9
  br i1 %13, label %14, label %19

14:                                               ; preds = %2
  %15 = load i32, ptr %7, align 4
  %16 = call ptr @SDL_Vulkan_GetResultString(i32 noundef %15)
  %17 = load i32, ptr %7, align 4
  %18 = call zeroext i1 (ptr, ...) @SDL_SetError_REAL(ptr noundef @.str.40, ptr noundef @.str.41, ptr noundef @.str.42, ptr noundef %16, i32 noundef %17)
  store ptr null, ptr %3, align 8
  store i32 1, ptr %9, align 4
  br label %57

19:                                               ; preds = %2
  %20 = load i32, ptr %7, align 4
  %21 = icmp ne i32 %20, 0
  br i1 %21, label %22, label %27

22:                                               ; preds = %19
  %23 = load i32, ptr %7, align 4
  %24 = call ptr @SDL_Vulkan_GetResultString(i32 noundef %23)
  %25 = load i32, ptr %7, align 4
  %26 = call zeroext i1 (ptr, ...) @SDL_SetError_REAL(ptr noundef @.str.43, ptr noundef %24, i32 noundef %25)
  store ptr null, ptr %3, align 8
  store i32 1, ptr %9, align 4
  br label %57

27:                                               ; preds = %19
  br label %28

28:                                               ; preds = %27
  %29 = load i32, ptr %6, align 4
  %30 = icmp eq i32 %29, 0
  br i1 %30, label %31, label %33

31:                                               ; preds = %28
  %32 = call noalias ptr @SDL_calloc_REAL(i64 noundef 1, i64 noundef 260) #7
  store ptr %32, ptr %8, align 8
  br label %37

33:                                               ; preds = %28
  %34 = load i32, ptr %6, align 4
  %35 = zext i32 %34 to i64
  %36 = call noalias ptr @SDL_calloc_REAL(i64 noundef %35, i64 noundef 260) #7
  store ptr %36, ptr %8, align 8
  br label %37

37:                                               ; preds = %33, %31
  %38 = load ptr, ptr %8, align 8
  %39 = icmp ne ptr %38, null
  br i1 %39, label %41, label %40

40:                                               ; preds = %37
  store ptr null, ptr %3, align 8
  store i32 1, ptr %9, align 4
  br label %57

41:                                               ; preds = %37
  %42 = load ptr, ptr %4, align 8
  %43 = load ptr, ptr %8, align 8
  %44 = call i32 %42(ptr noundef null, ptr noundef %6, ptr noundef %43)
  store i32 %44, ptr %7, align 4
  %45 = load i32, ptr %7, align 4
  %46 = icmp ne i32 %45, 0
  br i1 %46, label %47, label %53

47:                                               ; preds = %41
  %48 = load i32, ptr %7, align 4
  %49 = call ptr @SDL_Vulkan_GetResultString(i32 noundef %48)
  %50 = load i32, ptr %7, align 4
  %51 = call zeroext i1 (ptr, ...) @SDL_SetError_REAL(ptr noundef @.str.43, ptr noundef %49, i32 noundef %50)
  %52 = load ptr, ptr %8, align 8
  call void @SDL_free_REAL(ptr noundef %52)
  store ptr null, ptr %3, align 8
  store i32 1, ptr %9, align 4
  br label %57

53:                                               ; preds = %41
  %54 = load i32, ptr %6, align 4
  %55 = load ptr, ptr %5, align 8
  store i32 %54, ptr %55, align 4
  %56 = load ptr, ptr %8, align 8
  store ptr %56, ptr %3, align 8
  store i32 1, ptr %9, align 4
  br label %57

57:                                               ; preds = %53, %47, %40, %22, %14
  call void @llvm.lifetime.end.p0(i64 8, ptr %8) #6
  call void @llvm.lifetime.end.p0(i64 4, ptr %7) #6
  call void @llvm.lifetime.end.p0(i64 4, ptr %6) #6
  %58 = load ptr, ptr %3, align 8
  ret ptr %58
}