; Function Attrs: nounwind uwtable
define hidden ptr @SDL_Vulkan_CreateInstanceExtensionsList(ptr noundef readonly captures(none) %0, ptr noundef writeonly captures(none) %1) local_unnamed_addr #1 {
  %3 = alloca i32, align 4
  call void @llvm.lifetime.start.p0(i64 4, ptr nonnull %3) #7
  store i32 0, ptr %3, align 4
  %4 = call i32 %0(ptr noundef null, ptr noundef nonnull %3, ptr noundef null) #7
  switch i32 %4, label %7 [
    i32 -9, label %5
    i32 0, label %10
  ]

5:                                                ; preds = %2
  %6 = call zeroext i1 (ptr, ...) @SDL_SetError_REAL(ptr noundef nonnull @.str.40, ptr noundef nonnull @.str.41, ptr noundef nonnull @.str.42, ptr noundef nonnull @.str.14, i32 noundef -9) #7
  br label %20

7:                                                ; preds = %2
  %8 = call ptr @SDL_Vulkan_GetResultString(i32 noundef %4)
  %9 = call zeroext i1 (ptr, ...) @SDL_SetError_REAL(ptr noundef nonnull @.str.43, ptr noundef nonnull %8, i32 noundef %4) #7
  br label %20

10:                                               ; preds = %2
  %11 = load i32, ptr %3, align 4
  %narrow = call i32 @llvm.umax.i32(i32 %11, i32 1)
  %.sink = zext i32 %narrow to i64
  %12 = call noalias ptr @SDL_calloc_REAL(i64 noundef %.sink, i64 noundef 260) #8
  %.not20 = icmp eq ptr %12, null
  br i1 %.not20, label %20, label %13

13:                                               ; preds = %10
  %14 = call i32 %0(ptr noundef null, ptr noundef nonnull %3, ptr noundef nonnull %12) #7
  %.not21 = icmp eq i32 %14, 0
  br i1 %.not21, label %18, label %15

15:                                               ; preds = %13
  %16 = call ptr @SDL_Vulkan_GetResultString(i32 noundef %14)
  %17 = call zeroext i1 (ptr, ...) @SDL_SetError_REAL(ptr noundef nonnull @.str.43, ptr noundef nonnull %16, i32 noundef %14) #7
  call void @SDL_free_REAL(ptr noundef nonnull %12) #7
  br label %20

18:                                               ; preds = %13
  %19 = load i32, ptr %3, align 4
  store i32 %19, ptr %1, align 4
  br label %20

20:                                               ; preds = %10, %18, %15, %7, %5
  %.016 = phi ptr [ null, %5 ], [ null, %7 ], [ null, %15 ], [ %12, %18 ], [ null, %10 ]
  call void @llvm.lifetime.end.p0(i64 4, ptr nonnull %3) #7
  ret ptr %.016
}